target datalayout = "e-m:e-p270:32:32-p271:32:32-p272:64:64-i64:64-i128:128-f80:128-n8:16:32:64-S128"
target triple = "x86_64-pc-linux-gnu"

%"struct.std::__detail::_Hash_node_base" = type { ptr }
%"struct.std::__detail::_Prime_rehash_policy" = type { float, i64 }
%"struct.std::_Rb_tree_header" = type { %"struct.std::_Rb_tree_node_base", i64 }
%"struct.std::_Rb_tree_node_base" = type { i32, ptr, ptr, ptr }
%"struct.PairingHeap<MergeCandidateKey>::Node" = type { %"struct.PairingHeap<MergeCandidateKey>::Link", %"struct.PairingHeap<MergeCandidateKey>::Link", ptr, %struct.MergeCandidateKey }
%"struct.PairingHeap<MergeCandidateKey>::Link" = type { ptr }
%struct.MergeCandidateKey = type { i64, i32 }
%class.SiblingMC = type { %class.MergeCandidate, ptr, ptr, %class.V3ListLinks, %class.V3ListLinks }
%class.MergeCandidate = type { %"struct.PairingHeap<MergeCandidateKey>::Node" }
%class.V3ListLinks = type { ptr, ptr }
%class.LogicMTask = type { %class.V3GraphVertex, %class.V3List.4, i32, %"struct.std::array.5", i32, i64, %"class.std::unordered_set", %"struct.std::array.8", %"class.std::set", %class.V3List.12, %class.V3List.13 }
%class.V3GraphVertex = type { ptr, %class.V3ListLinks.1, %class.V3List, %class.V3List.2, double, i32, i32, %union.anon.3 }
%class.V3ListLinks.1 = type { ptr, ptr }
%class.V3List = type { ptr, ptr }
%class.V3List.2 = type { ptr, ptr }
%union.anon.3 = type { ptr }
%class.V3List.4 = type { ptr, ptr }
%"struct.std::array.5" = type { [2 x i32] }
%"class.std::unordered_set" = type { %"class.std::_Hashtable" }
%"class.std::_Hashtable" = type { ptr, i64, %"struct.std::__detail::_Hash_node_base", i64, %"struct.std::__detail::_Prime_rehash_policy", ptr }
%"struct.std::array.8" = type { [2 x %class.PairingHeap] }
%class.PairingHeap = type { %"struct.PairingHeap<EdgeKey>::Link" }
%"struct.PairingHeap<EdgeKey>::Link" = type { ptr }
%"class.std::set" = type { %"class.std::_Rb_tree" }
%"class.std::_Rb_tree" = type { %"struct.std::_Rb_tree<LogicMTask *, LogicMTask *, std::_Identity<LogicMTask *>, std::less<LogicMTask *>>::_Rb_tree_impl" }
%"struct.std::_Rb_tree<LogicMTask *, LogicMTask *, std::_Identity<LogicMTask *>, std::less<LogicMTask *>>::_Rb_tree_impl" = type { %"struct.std::_Rb_tree_key_compare", %"struct.std::_Rb_tree_header" }
%"struct.std::_Rb_tree_key_compare" = type { %"struct.std::less" }
%"struct.std::less" = type { i8 }
%class.V3List.12 = type { ptr, ptr }
%class.V3List.13 = type { ptr, ptr }

; Function Attrs: mustprogress nounwind uwtable
define linkonce_odr dso_local noundef nonnull align 8 dereferenceable(16) ptr @_ZN9SiblingMC6bLinksEv(ptr noundef nonnull align 8 dereferenceable(88) %0) #5 comdat align 2 {
  %2 = alloca ptr, align 8
  store ptr %0, ptr %2, align 8
  %3 = load ptr, ptr %2, align 8
  %4 = getelementptr inbounds %class.SiblingMC, ptr %3, i32 0, i32 4
  ret ptr %4
}

; Function Attrs: mustprogress uwtable
define linkonce_odr dso_local void @_ZN6V3ListI9SiblingMCXadL_ZNS0_6bLinksEvEES0_E6unlinkEPKS0_(ptr noundef nonnull align 8 dereferenceable(16) %0, ptr noundef %1) #4 comdat align 2 {
  %3 = alloca ptr, align 8
  %4 = alloca ptr, align 8
  %5 = alloca ptr, align 8
  %6 = alloca ptr, align 8
  %7 = alloca ptr, align 8
  %8 = alloca ptr, align 8
  store ptr %0, ptr %6, align 8
  store ptr %1, ptr %7, align 8
  %9 = load ptr, ptr %6, align 8
  %10 = load ptr, ptr %7, align 8
  store ptr %10, ptr %3, align 8
  %11 = load ptr, ptr %3, align 8
  %12 = call noundef nonnull align 8 dereferenceable(16) ptr @_ZN9SiblingMC6bLinksEv(ptr noundef nonnull align 8 dereferenceable(88) %11)
  store ptr %12, ptr %8, align 8
  %13 = load ptr, ptr %8, align 8
  %14 = getelementptr inbounds %class.V3ListLinks, ptr %13, i32 0, i32 0
  %15 = load ptr, ptr %14, align 8
  %16 = icmp ne ptr %15, null
  br i1 %16, label %17, label %27

17:                                               ; preds = %2
  %18 = load ptr, ptr %8, align 8
  %19 = getelementptr inbounds %class.V3ListLinks, ptr %18, i32 0, i32 1
  %20 = load ptr, ptr %19, align 8
  %21 = load ptr, ptr %8, align 8
  %22 = getelementptr inbounds %class.V3ListLinks, ptr %21, i32 0, i32 0
  %23 = load ptr, ptr %22, align 8
  store ptr %23, ptr %4, align 8
  %24 = load ptr, ptr %4, align 8
  %25 = call noundef nonnull align 8 dereferenceable(16) ptr @_ZN9SiblingMC6bLinksEv(ptr noundef nonnull align 8 dereferenceable(88) %24)
  %26 = getelementptr inbounds %class.V3ListLinks, ptr %25, i32 0, i32 1
  store ptr %20, ptr %26, align 8
  br label %27

27:                                               ; preds = %17, %2
  %28 = load ptr, ptr %8, align 8
  %29 = getelementptr inbounds %class.V3ListLinks, ptr %28, i32 0, i32 1
  %30 = load ptr, ptr %29, align 8
  %31 = icmp ne ptr %30, null
  br i1 %31, label %32, label %42

32:                                               ; preds = %27
  %33 = load ptr, ptr %8, align 8
  %34 = getelementptr inbounds %class.V3ListLinks, ptr %33, i32 0, i32 0
  %35 = load ptr, ptr %34, align 8
  %36 = load ptr, ptr %8, align 8
  %37 = getelementptr inbounds %class.V3ListLinks, ptr %36, i32 0, i32 1
  %38 = load ptr, ptr %37, align 8
  store ptr %38, ptr %5, align 8
  %39 = load ptr, ptr %5, align 8
  %40 = call noundef nonnull align 8 dereferenceable(16) ptr @_ZN9SiblingMC6bLinksEv(ptr noundef nonnull align 8 dereferenceable(88) %39)
  %41 = getelementptr inbounds %class.V3ListLinks, ptr %40, i32 0, i32 0
  store ptr %35, ptr %41, align 8
  br label %42

42:                                               ; preds = %32, %27
  %43 = getelementptr inbounds %class.V3List.13, ptr %9, i32 0, i32 0
  %44 = load ptr, ptr %43, align 8
  %45 = load ptr, ptr %7, align 8
  %46 = icmp eq ptr %44, %45
  br i1 %46, label %47, label %52

47:                                               ; preds = %42
  %48 = load ptr, ptr %8, align 8
  %49 = getelementptr inbounds %class.V3ListLinks, ptr %48, i32 0, i32 0
  %50 = load ptr, ptr %49, align 8
  %51 = getelementptr inbounds %class.V3List.13, ptr %9, i32 0, i32 0
  store ptr %50, ptr %51, align 8
  br label %52

52:                                               ; preds = %47, %42
  %53 = getelementptr inbounds %class.V3List.13, ptr %9, i32 0, i32 1
  %54 = load ptr, ptr %53, align 8
  %55 = load ptr, ptr %7, align 8
  %56 = icmp eq ptr %54, %55
  br i1 %56, label %57, label %62

57:                                               ; preds = %52
  %58 = load ptr, ptr %8, align 8
  %59 = getelementptr inbounds %class.V3ListLinks, ptr %58, i32 0, i32 1
  %60 = load ptr, ptr %59, align 8
  %61 = getelementptr inbounds %class.V3List.13, ptr %9, i32 0, i32 1
  store ptr %60, ptr %61, align 8
  br label %62

62:                                               ; preds = %57, %52
  %63 = load ptr, ptr %8, align 8
  %64 = getelementptr inbounds %class.V3ListLinks, ptr %63, i32 0, i32 1
  store ptr null, ptr %64, align 8
  %65 = load ptr, ptr %8, align 8
  %66 = getelementptr inbounds %class.V3ListLinks, ptr %65, i32 0, i32 0
  store ptr null, ptr %66, align 8
  ret void
}

; Function Attrs: mustprogress nounwind uwtable
define linkonce_odr dso_local noundef nonnull align 8 dereferenceable(16) ptr @_ZN10LogicMTask11bSiblingMCsEv(ptr noundef nonnull align 8 dereferenceable(272) %0) #5 comdat align 2 {
  %2 = alloca ptr, align 8
  store ptr %0, ptr %2, align 8
  %3 = load ptr, ptr %2, align 8
  %4 = getelementptr inbounds %class.LogicMTask, ptr %3, i32 0, i32 10
  ret ptr %4
}

; Function Attrs: mustprogress uwtable
define dso_local void @_ZN9SiblingMC7unlinkBEv(ptr noundef nonnull align 8 dereferenceable(88) %0) #4 align 2 {
  %2 = alloca ptr, align 8
  store ptr %0, ptr %2, align 8
  %3 = load ptr, ptr %2, align 8
  %4 = getelementptr inbounds %class.SiblingMC, ptr %3, i32 0, i32 2
  %5 = load ptr, ptr %4, align 8
  %6 = call noundef nonnull align 8 dereferenceable(16) ptr @_ZN10LogicMTask11bSiblingMCsEv(ptr noundef nonnull align 8 dereferenceable(272) %5)
  call void @_ZN6V3ListI9SiblingMCXadL_ZNS0_6bLinksEvEES0_E6unlinkEPKS0_(ptr noundef nonnull align 8 dereferenceable(16) %6, ptr noundef %3)
  ret void
}