; Function Attrs: mustprogress nofree norecurse nosync nounwind willreturn memory(readwrite, inaccessiblemem: none) uwtable
define dso_local void @_ZN9SiblingMC7unlinkBEv(ptr noundef nonnull align 8 dereferenceable(88) %0) local_unnamed_addr #6 align 2 {
  %2 = getelementptr inbounds i8, ptr %0, i64 48
  %3 = load ptr, ptr %2, align 8
  %4 = getelementptr inbounds i8, ptr %3, i64 256
  %5 = getelementptr inbounds i8, ptr %0, i64 72
  %6 = load ptr, ptr %5, align 8
  %.not.i = icmp eq ptr %6, null
  %.phi.trans.insert.i = getelementptr inbounds i8, ptr %0, i64 80
  %.pre.i = load ptr, ptr %.phi.trans.insert.i, align 8
  br i1 %.not.i, label %._crit_edge.i, label %7

7:                                                ; preds = %1
  %8 = getelementptr inbounds i8, ptr %6, i64 80
  store ptr %.pre.i, ptr %8, align 8
  br label %._crit_edge.i

._crit_edge.i:                                    ; preds = %7, %1
  %.not18.i = icmp eq ptr %.pre.i, null
  br i1 %.not18.i, label %12, label %9

9:                                                ; preds = %._crit_edge.i
  %10 = load ptr, ptr %5, align 8
  %11 = getelementptr inbounds i8, ptr %.pre.i, i64 72
  store ptr %10, ptr %11, align 8
  br label %12

12:                                               ; preds = %9, %._crit_edge.i
  %13 = load ptr, ptr %4, align 8
  %14 = icmp eq ptr %13, %0
  br i1 %14, label %15, label %17

15:                                               ; preds = %12
  %16 = load ptr, ptr %5, align 8
  store ptr %16, ptr %4, align 8
  br label %17

17:                                               ; preds = %15, %12
  %18 = getelementptr inbounds i8, ptr %3, i64 264
  %19 = load ptr, ptr %18, align 8
  %20 = icmp eq ptr %19, %0
  br i1 %20, label %21, label %_ZN6V3ListI9SiblingMCXadL_ZNS0_6bLinksEvEES0_E6unlinkEPKS0_.exit

21:                                               ; preds = %17
  %22 = load ptr, ptr %.phi.trans.insert.i, align 8
  store ptr %22, ptr %18, align 8
  br label %_ZN6V3ListI9SiblingMCXadL_ZNS0_6bLinksEvEES0_E6unlinkEPKS0_.exit

_ZN6V3ListI9SiblingMCXadL_ZNS0_6bLinksEvEES0_E6unlinkEPKS0_.exit: ; preds = %17, %21
  tail call void @llvm.memset.p0.i64(ptr noundef nonnull align 8 dereferenceable(16) %5, i8 0, i64 16, i1 false)
  ret void
}